target datalayout = "e-m:e-p270:32:32-p271:32:32-p272:64:64-i64:64-i128:128-f80:128-n8:16:32:64-S128"
target triple = "x86_64-pc-linux-gnu"

%"class.std::__cxx11::basic_string" = type { %"struct.std::__cxx11::basic_string<char>::_Alloc_hider", i64, %union.anon }
%"struct.std::__cxx11::basic_string<char>::_Alloc_hider" = type { ptr }
%union.anon = type { i64, [8 x i8] }
%class.insn_t = type { i64 }
%"class.std::allocator" = type { i8 }

@.str.2084 = private unnamed_addr constant [3 x i8] c"v0\00", align 1

; Function Attrs: mustprogress uwtable
define internal void @"_ZNK4$_569to_stringB5cxx11E6insn_t"(ptr dead_on_unwind noalias writable sret(%"class.std::__cxx11::basic_string") align 8 %0, ptr noundef nonnull align 8 dereferenceable(8) %1, i64 %2) unnamed_addr #3 align 2 personality ptr @__gxx_personality_v0 {
  %4 = alloca ptr, align 8
  %5 = alloca %class.insn_t, align 8
  %6 = alloca ptr, align 8
  %7 = alloca %"class.std::allocator", align 1
  %8 = alloca ptr, align 8
  %9 = alloca i32, align 4
  store ptr %0, ptr %4, align 8
  %10 = getelementptr inbounds %class.insn_t, ptr %5, i32 0, i32 0
  store i64 %2, ptr %10, align 8
  store ptr %1, ptr %6, align 8
  call void @_ZNSaIcEC1Ev(ptr noundef nonnull align 1 dereferenceable(1) %7) #2
  invoke void @_ZNSt7__cxx1112basic_stringIcSt11char_traitsIcESaIcEEC2IS3_EEPKcRKS3_(ptr noundef nonnull align 8 dereferenceable(32) %0, ptr noundef @.str.2084, ptr noundef nonnull align 1 dereferenceable(1) %7)
          to label %11 unwind label %12

11:                                               ; preds = %3
  call void @_ZNSaIcED1Ev(ptr noundef nonnull align 1 dereferenceable(1) %7) #2
  ret void

12:                                               ; preds = %3
  %13 = landingpad { ptr, i32 }
          cleanup
  %14 = extractvalue { ptr, i32 } %13, 0
  store ptr %14, ptr %8, align 8
  %15 = extractvalue { ptr, i32 } %13, 1
  store i32 %15, ptr %9, align 4
  call void @_ZNSaIcED1Ev(ptr noundef nonnull align 1 dereferenceable(1) %7) #2
  br label %16

16:                                               ; preds = %12
  %17 = load ptr, ptr %8, align 8
  %18 = load i32, ptr %9, align 4
  %19 = insertvalue { ptr, i32 } poison, ptr %17, 0
  %20 = insertvalue { ptr, i32 } %19, i32 %18, 1
  resume { ptr, i32 } %20
}